target datalayout = "e-m:e-p270:32:32-p271:32:32-p272:64:64-i64:64-i128:128-f80:128-n8:16:32:64-S128"
target triple = "x86_64-pc-linux-gnu"

; Function Attrs: nounwind uwtable
define hidden i32 @mbedtls_camellia_crypt_cfb128(ptr noundef %0, i32 noundef %1, i64 noundef %2, ptr noundef %3, ptr noundef %4, ptr noundef %5, ptr noundef %6) #0 {
  %8 = alloca i32, align 4
  %9 = alloca ptr, align 8
  %10 = alloca i32, align 4
  %11 = alloca i64, align 8
  %12 = alloca ptr, align 8
  %13 = alloca ptr, align 8
  %14 = alloca ptr, align 8
  %15 = alloca ptr, align 8
  %16 = alloca i32, align 4
  %17 = alloca i64, align 8
  %18 = alloca i32, align 4
  store ptr %0, ptr %9, align 8, !tbaa !3
  store i32 %1, ptr %10, align 4, !tbaa !10
  store i64 %2, ptr %11, align 8, !tbaa !16
  store ptr %3, ptr %12, align 8, !tbaa !43
  store ptr %4, ptr %13, align 8, !tbaa !8
  store ptr %5, ptr %14, align 8, !tbaa !8
  store ptr %6, ptr %15, align 8, !tbaa !8
  call void @llvm.lifetime.start.p0(i64 4, ptr %16) #8
  call void @llvm.lifetime.start.p0(i64 8, ptr %17) #8
  %19 = load i32, ptr %10, align 4, !tbaa !10
  %20 = icmp ne i32 %19, 1
  br i1 %20, label %21, label %25

21:                                               ; preds = %7
  %22 = load i32, ptr %10, align 4, !tbaa !10
  %23 = icmp ne i32 %22, 0
  br i1 %23, label %24, label %25

24:                                               ; preds = %21
  store i32 -36, ptr %8, align 4
  store i32 1, ptr %18, align 4
  br label %108

25:                                               ; preds = %21, %7
  %26 = load ptr, ptr %12, align 8, !tbaa !43
  %27 = load i64, ptr %26, align 8, !tbaa !16
  store i64 %27, ptr %17, align 8, !tbaa !16
  %28 = load i64, ptr %17, align 8, !tbaa !16
  %29 = icmp uge i64 %28, 16
  br i1 %29, label %30, label %31

30:                                               ; preds = %25
  store i32 -36, ptr %8, align 4
  store i32 1, ptr %18, align 4
  br label %108

31:                                               ; preds = %25
  %32 = load i32, ptr %10, align 4, !tbaa !10
  %33 = icmp eq i32 %32, 0
  br i1 %33, label %34, label %71

34:                                               ; preds = %31
  br label %35

35:                                               ; preds = %47, %34
  %36 = load i64, ptr %11, align 8, !tbaa !16
  %37 = add i64 %36, -1
  store i64 %37, ptr %11, align 8, !tbaa !16
  %38 = icmp ne i64 %36, 0
  br i1 %38, label %39, label %70

39:                                               ; preds = %35
  %40 = load i64, ptr %17, align 8, !tbaa !16
  %41 = icmp eq i64 %40, 0
  br i1 %41, label %42, label %47

42:                                               ; preds = %39
  %43 = load ptr, ptr %9, align 8, !tbaa !3
  %44 = load ptr, ptr %13, align 8, !tbaa !8
  %45 = load ptr, ptr %13, align 8, !tbaa !8
  %46 = call i32 @mbedtls_camellia_crypt_ecb(ptr noundef %43, i32 noundef 1, ptr noundef %44, ptr noundef %45)
  br label %47

47:                                               ; preds = %42, %39
  %48 = load ptr, ptr %14, align 8, !tbaa !8
  %49 = getelementptr inbounds nuw i8, ptr %48, i32 1
  store ptr %49, ptr %14, align 8, !tbaa !8
  %50 = load i8, ptr %48, align 1, !tbaa !18
  %51 = zext i8 %50 to i32
  store i32 %51, ptr %16, align 4, !tbaa !10
  %52 = load i32, ptr %16, align 4, !tbaa !10
  %53 = load ptr, ptr %13, align 8, !tbaa !8
  %54 = load i64, ptr %17, align 8, !tbaa !16
  %55 = getelementptr inbounds nuw i8, ptr %53, i64 %54
  %56 = load i8, ptr %55, align 1, !tbaa !18
  %57 = zext i8 %56 to i32
  %58 = xor i32 %52, %57
  %59 = trunc i32 %58 to i8
  %60 = load ptr, ptr %15, align 8, !tbaa !8
  %61 = getelementptr inbounds nuw i8, ptr %60, i32 1
  store ptr %61, ptr %15, align 8, !tbaa !8
  store i8 %59, ptr %60, align 1, !tbaa !18
  %62 = load i32, ptr %16, align 4, !tbaa !10
  %63 = trunc i32 %62 to i8
  %64 = load ptr, ptr %13, align 8, !tbaa !8
  %65 = load i64, ptr %17, align 8, !tbaa !16
  %66 = getelementptr inbounds nuw i8, ptr %64, i64 %65
  store i8 %63, ptr %66, align 1, !tbaa !18
  %67 = load i64, ptr %17, align 8, !tbaa !16
  %68 = add i64 %67, 1
  %69 = and i64 %68, 15
  store i64 %69, ptr %17, align 8, !tbaa !16
  br label %35, !llvm.loop !45

70:                                               ; preds = %35
  br label %105

71:                                               ; preds = %31
  br label %72

72:                                               ; preds = %84, %71
  %73 = load i64, ptr %11, align 8, !tbaa !16
  %74 = add i64 %73, -1
  store i64 %74, ptr %11, align 8, !tbaa !16
  %75 = icmp ne i64 %73, 0
  br i1 %75, label %76, label %104

76:                                               ; preds = %72
  %77 = load i64, ptr %17, align 8, !tbaa !16
  %78 = icmp eq i64 %77, 0
  br i1 %78, label %79, label %84

79:                                               ; preds = %76
  %80 = load ptr, ptr %9, align 8, !tbaa !3
  %81 = load ptr, ptr %13, align 8, !tbaa !8
  %82 = load ptr, ptr %13, align 8, !tbaa !8
  %83 = call i32 @mbedtls_camellia_crypt_ecb(ptr noundef %80, i32 noundef 1, ptr noundef %81, ptr noundef %82)
  br label %84

84:                                               ; preds = %79, %76
  %85 = load ptr, ptr %13, align 8, !tbaa !8
  %86 = load i64, ptr %17, align 8, !tbaa !16
  %87 = getelementptr inbounds nuw i8, ptr %85, i64 %86
  %88 = load i8, ptr %87, align 1, !tbaa !18
  %89 = zext i8 %88 to i32
  %90 = load ptr, ptr %14, align 8, !tbaa !8
  %91 = getelementptr inbounds nuw i8, ptr %90, i32 1
  store ptr %91, ptr %14, align 8, !tbaa !8
  %92 = load i8, ptr %90, align 1, !tbaa !18
  %93 = zext i8 %92 to i32
  %94 = xor i32 %89, %93
  %95 = trunc i32 %94 to i8
  %96 = load ptr, ptr %15, align 8, !tbaa !8
  %97 = getelementptr inbounds nuw i8, ptr %96, i32 1
  store ptr %97, ptr %15, align 8, !tbaa !8
  store i8 %95, ptr %96, align 1, !tbaa !18
  %98 = load ptr, ptr %13, align 8, !tbaa !8
  %99 = load i64, ptr %17, align 8, !tbaa !16
  %100 = getelementptr inbounds nuw i8, ptr %98, i64 %99
  store i8 %95, ptr %100, align 1, !tbaa !18
  %101 = load i64, ptr %17, align 8, !tbaa !16
  %102 = add i64 %101, 1
  %103 = and i64 %102, 15
  store i64 %103, ptr %17, align 8, !tbaa !16
  br label %72, !llvm.loop !46

104:                                              ; preds = %72
  br label %105

105:                                              ; preds = %104, %70
  %106 = load i64, ptr %17, align 8, !tbaa !16
  %107 = load ptr, ptr %12, align 8, !tbaa !43
  store i64 %106, ptr %107, align 8, !tbaa !16
  store i32 0, ptr %8, align 4
  store i32 1, ptr %18, align 4
  br label %108

108:                                              ; preds = %105, %30, %24
  call void @llvm.lifetime.end.p0(i64 8, ptr %17) #8
  call void @llvm.lifetime.end.p0(i64 4, ptr %16) #8
  %109 = load i32, ptr %8, align 4
  ret i32 %109
}